; Function Attrs: nounwind sspstrong uwtable
define internal zeroext i1 @child_job_drained_poll(ptr noundef readonly captures(none) %0) #0 {
.split.us:
  %1 = getelementptr inbounds nuw i8, ptr %0, i64 32
  %2 = load ptr, ptr %1, align 8
  %3 = getelementptr inbounds nuw i8, ptr %2, i64 8
  %4 = load ptr, ptr %3, align 8
  %5 = load atomic i64, ptr @qemu_mutex_lock_func monotonic, align 8
  %6 = inttoptr i64 %5 to ptr
  tail call void %6(ptr noundef nonnull @job_mutex, ptr noundef nonnull @.str.13, i32 noundef 56) #8
  %7 = getelementptr inbounds nuw i8, ptr %2, i64 180
  %8 = load i8, ptr %7, align 4, !range !10, !noundef !11
  %9 = trunc nuw i8 %8 to i1
  br i1 %9, label %10, label %glib_autoptr_cleanup_QemuLockable.exit

10:                                               ; preds = %.split.us
  %11 = tail call zeroext i1 @job_is_completed_locked(ptr noundef nonnull %2) #8
  br i1 %11, label %glib_autoptr_cleanup_QemuLockable.exit, label %qemu_lockable_auto_unlock.exit.us

qemu_lockable_auto_unlock.exit.us:                ; preds = %10
  tail call void @qemu_mutex_unlock_impl(ptr noundef nonnull @job_mutex, ptr noundef nonnull @.str.13, i32 noundef 56) #8
  %12 = getelementptr inbounds nuw i8, ptr %4, i64 104
  %13 = load ptr, ptr %12, align 8
  %.not11 = icmp eq ptr %13, null
  br i1 %.not11, label %16, label %14

glib_autoptr_cleanup_QemuLockable.exit:           ; preds = %.split.us, %10
  tail call void @qemu_mutex_unlock_impl(ptr noundef nonnull @job_mutex, ptr noundef nonnull @.str.13, i32 noundef 56) #8
  br label %16

14:                                               ; preds = %qemu_lockable_auto_unlock.exit.us
  %15 = tail call zeroext i1 %13(ptr noundef nonnull %2) #8
  br label %16

16:                                               ; preds = %glib_autoptr_cleanup_QemuLockable.exit, %qemu_lockable_auto_unlock.exit.us, %14
  %.1 = phi i1 [ %15, %14 ], [ false, %glib_autoptr_cleanup_QemuLockable.exit ], [ true, %qemu_lockable_auto_unlock.exit.us ]
  ret i1 %.1
}